target datalayout = "e-m:e-p270:32:32-p271:32:32-p272:64:64-i64:64-i128:128-f80:128-n8:16:32:64-S128"
target triple = "x86_64-pc-linux-gnu"

%struct.strbuf = type { i64, i64, ptr }

@.str.17 = private unnamed_addr constant [8 x i8] c"code:%d\00", align 1
@.str.20 = private unnamed_addr constant [22 x i8] c"trace2/tr2_tgt_perf.c\00", align 1
@.str.21 = private unnamed_addr constant [7 x i8] c"atexit\00", align 1
@__const.fn_atexit.buf_payload = private unnamed_addr constant %struct.strbuf { i64 0, i64 0, ptr @strbuf_slopbuf }, align 8

; Function Attrs: nounwind uwtable
define internal void @fn_atexit(i64 noundef %0, i32 noundef %1) #0 {
  %3 = alloca i64, align 8
  %4 = alloca i32, align 4
  %5 = alloca ptr, align 8
  %6 = alloca %struct.strbuf, align 8
  store i64 %0, ptr %3, align 8, !tbaa !12
  store i32 %1, ptr %4, align 4, !tbaa !4
  call void @llvm.lifetime.start.p0(i64 8, ptr %5) #9
  store ptr @.str.21, ptr %5, align 8, !tbaa !8
  call void @llvm.lifetime.start.p0(i64 24, ptr %6) #9
  call void @llvm.memcpy.p0.p0.i64(ptr align 8 %6, ptr align 8 @__const.fn_atexit.buf_payload, i64 24, i1 false)
  %7 = load i32, ptr %4, align 4, !tbaa !4
  call void (ptr, ptr, ...) @strbuf_addf(ptr noundef %6, ptr noundef @.str.17, i32 noundef %7)
  %8 = load ptr, ptr %5, align 8, !tbaa !8
  call void @perf_io_write_fl(ptr noundef @.str.20, i32 noundef 219, ptr noundef %8, ptr noundef null, ptr noundef %3, ptr noundef null, ptr noundef null, ptr noundef %6)
  call void @strbuf_release(ptr noundef %6)
  call void @llvm.lifetime.end.p0(i64 24, ptr %6) #9
  call void @llvm.lifetime.end.p0(i64 8, ptr %5) #9
  ret void
}